target datalayout = "e-m:e-p270:32:32-p271:32:32-p272:64:64-i64:64-i128:128-f80:128-n8:16:32:64-S128"
target triple = "x86_64-pc-linux-gnu"

@Users = dso_local global ptr null, align 8

; Function Attrs: nounwind uwtable
define dso_local ptr @ACLGetUserByName(ptr noundef %0, i64 noundef %1) #0 {
  %3 = alloca ptr, align 8
  %4 = alloca i64, align 8
  %5 = alloca ptr, align 8
  store ptr %0, ptr %3, align 8, !tbaa !5
  store i64 %1, ptr %4, align 8, !tbaa !10
  call void @llvm.lifetime.start.p0(i64 8, ptr %5) #14
  store ptr null, ptr %5, align 8, !tbaa !32
  %6 = load ptr, ptr @Users, align 8, !tbaa !88
  %7 = load ptr, ptr %3, align 8, !tbaa !5
  %8 = load i64, ptr %4, align 8, !tbaa !10
  %9 = call i32 @raxFind(ptr noundef %6, ptr noundef %7, i64 noundef %8, ptr noundef %5)
  %10 = load ptr, ptr %5, align 8, !tbaa !32
  call void @llvm.lifetime.end.p0(i64 8, ptr %5) #14
  ret ptr %10
}