; Function Attrs: nounwind uwtable
define dso_local ptr @ACLGetUserByName(ptr noundef %0, i64 noundef %1) local_unnamed_addr #0 {
  %3 = alloca ptr, align 8
  call void @llvm.lifetime.start.p0(i64 8, ptr nonnull %3) #25
  store ptr null, ptr %3, align 8, !tbaa !143
  %4 = load ptr, ptr @Users, align 8, !tbaa !87
  %5 = call i32 @raxFind(ptr noundef %4, ptr noundef %0, i64 noundef %1, ptr noundef nonnull %3) #25
  %6 = load ptr, ptr %3, align 8, !tbaa !143
  call void @llvm.lifetime.end.p0(i64 8, ptr nonnull %3) #25
  ret ptr %6
}